target datalayout = "e-m:e-p270:32:32-p271:32:32-p272:64:64-i64:64-i128:128-f80:128-n8:16:32:64-S128"
target triple = "x86_64-unknown-linux-gnu"

@_ZTIN6icu_7512NumberFormatE = external constant ptr
@_ZTIN6icu_7513DecimalFormatE = external constant ptr

; Function Attrs: mustprogress nounwind uwtable
define zeroext i1 @unum_hasAttribute_75(ptr noundef %fmt, i32 noundef %attr) #1 {
entry:
  %retval = alloca i1, align 1
  %fmt.addr = alloca ptr, align 8
  %attr.addr = alloca i32, align 4
  %nf = alloca ptr, align 8
  %isDecimalFormat = alloca i8, align 1
  store ptr %fmt, ptr %fmt.addr, align 8
  store i32 %attr, ptr %attr.addr, align 4
  %0 = load ptr, ptr %fmt.addr, align 8
  store ptr %0, ptr %nf, align 8
  %1 = load ptr, ptr %nf, align 8
  %2 = icmp eq ptr %1, null
  br i1 %2, label %dynamic_cast.null, label %dynamic_cast.notnull

dynamic_cast.notnull:                             ; preds = %entry
  %3 = call ptr @__dynamic_cast(ptr %1, ptr @_ZTIN6icu_7512NumberFormatE, ptr @_ZTIN6icu_7513DecimalFormatE, i64 0) #8
  br label %dynamic_cast.end

dynamic_cast.null:                                ; preds = %entry
  br label %dynamic_cast.end

dynamic_cast.end:                                 ; preds = %dynamic_cast.null, %dynamic_cast.notnull
  %4 = phi ptr [ %3, %dynamic_cast.notnull ], [ null, %dynamic_cast.null ]
  %cmp = icmp ne ptr %4, null
  %frombool = zext i1 %cmp to i8
  store i8 %frombool, ptr %isDecimalFormat, align 1
  %5 = load i32, ptr %attr.addr, align 4
  switch i32 %5, label %sw.default [
    i32 19, label %sw.bb
    i32 3, label %sw.bb
    i32 4, label %sw.bb
    i32 5, label %sw.bb
    i32 6, label %sw.bb
    i32 7, label %sw.bb
    i32 8, label %sw.bb
    i32 11, label %sw.bb
  ]

sw.bb:                                            ; preds = %dynamic_cast.end, %dynamic_cast.end, %dynamic_cast.end, %dynamic_cast.end, %dynamic_cast.end, %dynamic_cast.end, %dynamic_cast.end, %dynamic_cast.end
  store i1 true, ptr %retval, align 1
  br label %return

sw.default:                                       ; preds = %dynamic_cast.end
  %6 = load i8, ptr %isDecimalFormat, align 1
  %tobool = trunc i8 %6 to i1
  store i1 %tobool, ptr %retval, align 1
  br label %return

return:                                           ; preds = %sw.default, %sw.bb
  %7 = load i1, ptr %retval, align 1
  ret i1 %7
}