; Function Attrs: mustprogress nofree nounwind willreturn memory(read) uwtable
define zeroext i1 @unum_hasAttribute_75(ptr noundef readonly %fmt, i32 noundef %attr) local_unnamed_addr #7 {
entry:
  %0 = icmp eq ptr %fmt, null
  br i1 %0, label %dynamic_cast.end, label %dynamic_cast.notnull

dynamic_cast.notnull:                             ; preds = %entry
  %1 = tail call ptr @__dynamic_cast(ptr nonnull %fmt, ptr nonnull @_ZTIN6icu_7512NumberFormatE, ptr nonnull @_ZTIN6icu_7513DecimalFormatE, i64 0) #10
  %2 = icmp ne ptr %1, null
  br label %dynamic_cast.end

dynamic_cast.end:                                 ; preds = %entry, %dynamic_cast.notnull
  %cmp = phi i1 [ %2, %dynamic_cast.notnull ], [ false, %entry ]
  %switch.tableidx = add i32 %attr, -3
  %3 = icmp ult i32 %switch.tableidx, 17
  br i1 %3, label %switch.hole_check, label %return

switch.hole_check:                                ; preds = %dynamic_cast.end
  %switch.shifted = lshr i32 65855, %switch.tableidx
  %4 = and i32 %switch.shifted, 1
  %switch.lobit = icmp ne i32 %4, 0
  %spec.select = select i1 %switch.lobit, i1 true, i1 %cmp
  br label %return

return:                                           ; preds = %switch.hole_check, %dynamic_cast.end
  %retval.0 = phi i1 [ %cmp, %dynamic_cast.end ], [ %spec.select, %switch.hole_check ]
  ret i1 %retval.0
}